target datalayout = "e-m:e-p270:32:32-p271:32:32-p272:64:64-i64:64-i128:128-f80:128-n8:16:32:64-S128"
target triple = "x86_64-pc-linux-gnu"

%"class.pxrInternal_v0_24__pxrReserved__::GfVec2d" = type { [2 x double] }
%"class.pxrInternal_v0_24__pxrReserved__::GfLineSeg2d" = type { %"class.pxrInternal_v0_24__pxrReserved__::GfLine2d", double }
%"class.pxrInternal_v0_24__pxrReserved__::GfLine2d" = type { %"class.pxrInternal_v0_24__pxrReserved__::GfVec2d", %"class.pxrInternal_v0_24__pxrReserved__::GfVec2d" }

; Function Attrs: mustprogress nounwind uwtable
define linkonce_odr noundef nonnull align 8 dereferenceable(8) ptr @_ZNK32pxrInternal_v0_24__pxrReserved__7GfVec2dixEm(ptr noundef nonnull align 8 dereferenceable(16) %0, i64 noundef %1) #2 comdat align 2 {
  %3 = alloca ptr, align 8
  %4 = alloca i64, align 8
  store ptr %0, ptr %3, align 8
  store i64 %1, ptr %4, align 8
  %5 = load ptr, ptr %3, align 8
  %6 = getelementptr inbounds nuw %"class.pxrInternal_v0_24__pxrReserved__::GfVec2d", ptr %5, i32 0, i32 0
  %7 = load i64, ptr %4, align 8
  %8 = getelementptr inbounds [2 x double], ptr %6, i64 0, i64 %7
  ret ptr %8
}

; Function Attrs: mustprogress uwtable
define linkonce_odr noundef nonnull align 8 dereferenceable(16) ptr @_ZN32pxrInternal_v0_24__pxrReserved__7GfVec2dpLERKS0_(ptr noundef nonnull align 8 dereferenceable(16) %0, ptr noundef nonnull align 8 dereferenceable(16) %1) #0 comdat align 2 {
  %3 = alloca ptr, align 8
  %4 = alloca ptr, align 8
  store ptr %0, ptr %3, align 8
  store ptr %1, ptr %4, align 8
  %5 = load ptr, ptr %3, align 8
  %6 = load ptr, ptr %4, align 8
  %7 = call noundef nonnull align 8 dereferenceable(8) ptr @_ZNK32pxrInternal_v0_24__pxrReserved__7GfVec2dixEm(ptr noundef nonnull align 8 dereferenceable(16) %6, i64 noundef 0)
  %8 = load double, ptr %7, align 8
  %9 = getelementptr inbounds nuw %"class.pxrInternal_v0_24__pxrReserved__::GfVec2d", ptr %5, i32 0, i32 0
  %10 = getelementptr inbounds [2 x double], ptr %9, i64 0, i64 0
  %11 = load double, ptr %10, align 8
  %12 = fadd double %11, %8
  store double %12, ptr %10, align 8
  %13 = load ptr, ptr %4, align 8
  %14 = call noundef nonnull align 8 dereferenceable(8) ptr @_ZNK32pxrInternal_v0_24__pxrReserved__7GfVec2dixEm(ptr noundef nonnull align 8 dereferenceable(16) %13, i64 noundef 1)
  %15 = load double, ptr %14, align 8
  %16 = getelementptr inbounds nuw %"class.pxrInternal_v0_24__pxrReserved__::GfVec2d", ptr %5, i32 0, i32 0
  %17 = getelementptr inbounds [2 x double], ptr %16, i64 0, i64 1
  %18 = load double, ptr %17, align 8
  %19 = fadd double %18, %15
  store double %19, ptr %17, align 8
  ret ptr %5
}

; Function Attrs: mustprogress nounwind uwtable
define linkonce_odr noundef nonnull align 8 dereferenceable(16) ptr @_ZN32pxrInternal_v0_24__pxrReserved__7GfVec2dmLEd(ptr noundef nonnull align 8 dereferenceable(16) %0, double noundef %1) #2 comdat align 2 {
  %3 = alloca ptr, align 8
  %4 = alloca double, align 8
  store ptr %0, ptr %3, align 8
  store double %1, ptr %4, align 8
  %5 = load ptr, ptr %3, align 8
  %6 = load double, ptr %4, align 8
  %7 = getelementptr inbounds nuw %"class.pxrInternal_v0_24__pxrReserved__::GfVec2d", ptr %5, i32 0, i32 0
  %8 = getelementptr inbounds [2 x double], ptr %7, i64 0, i64 0
  %9 = load double, ptr %8, align 8
  %10 = fmul double %9, %6
  store double %10, ptr %8, align 8
  %11 = load double, ptr %4, align 8
  %12 = getelementptr inbounds nuw %"class.pxrInternal_v0_24__pxrReserved__::GfVec2d", ptr %5, i32 0, i32 0
  %13 = getelementptr inbounds [2 x double], ptr %12, i64 0, i64 1
  %14 = load double, ptr %13, align 8
  %15 = fmul double %14, %11
  store double %15, ptr %13, align 8
  ret ptr %5
}

; Function Attrs: mustprogress uwtable
define linkonce_odr { double, double } @_ZN32pxrInternal_v0_24__pxrReserved__plERKNS_7GfVec2dES2_(ptr noundef nonnull align 8 dereferenceable(16) %0, ptr noundef nonnull align 8 dereferenceable(16) %1) #0 comdat {
  %3 = alloca %"class.pxrInternal_v0_24__pxrReserved__::GfVec2d", align 8
  %4 = alloca ptr, align 8
  %5 = alloca ptr, align 8
  %6 = alloca %"class.pxrInternal_v0_24__pxrReserved__::GfVec2d", align 8
  store ptr %0, ptr %4, align 8
  store ptr %1, ptr %5, align 8
  %7 = load ptr, ptr %5, align 8
  %8 = load ptr, ptr %4, align 8
  call void @llvm.memcpy.p0.p0.i64(ptr align 8 %6, ptr align 8 %8, i64 16, i1 false)
  %9 = call noundef nonnull align 8 dereferenceable(16) ptr @_ZN32pxrInternal_v0_24__pxrReserved__7GfVec2dpLERKS0_(ptr noundef nonnull align 8 dereferenceable(16) %6, ptr noundef nonnull align 8 dereferenceable(16) %7)
  call void @llvm.memcpy.p0.p0.i64(ptr align 8 %3, ptr align 8 %9, i64 16, i1 false)
  %10 = getelementptr inbounds nuw %"class.pxrInternal_v0_24__pxrReserved__::GfVec2d", ptr %3, i32 0, i32 0
  %11 = load { double, double }, ptr %10, align 8
  ret { double, double } %11
}

; Function Attrs: mustprogress uwtable
define linkonce_odr { double, double } @_ZNK32pxrInternal_v0_24__pxrReserved__7GfVec2dmlEd(ptr noundef nonnull align 8 dereferenceable(16) %0, double noundef %1) #0 comdat align 2 {
  %3 = alloca %"class.pxrInternal_v0_24__pxrReserved__::GfVec2d", align 8
  %4 = alloca ptr, align 8
  %5 = alloca double, align 8
  %6 = alloca %"class.pxrInternal_v0_24__pxrReserved__::GfVec2d", align 8
  store ptr %0, ptr %4, align 8
  store double %1, ptr %5, align 8
  %7 = load ptr, ptr %4, align 8
  %8 = load double, ptr %5, align 8
  call void @llvm.memcpy.p0.p0.i64(ptr align 8 %6, ptr align 8 %7, i64 16, i1 false)
  %9 = call noundef nonnull align 8 dereferenceable(16) ptr @_ZN32pxrInternal_v0_24__pxrReserved__7GfVec2dmLEd(ptr noundef nonnull align 8 dereferenceable(16) %6, double noundef %8)
  call void @llvm.memcpy.p0.p0.i64(ptr align 8 %3, ptr align 8 %9, i64 16, i1 false)
  %10 = getelementptr inbounds nuw %"class.pxrInternal_v0_24__pxrReserved__::GfVec2d", ptr %3, i32 0, i32 0
  %11 = load { double, double }, ptr %10, align 8
  ret { double, double } %11
}

; Function Attrs: mustprogress uwtable
define linkonce_odr { double, double } @_ZNK32pxrInternal_v0_24__pxrReserved__8GfLine2d8GetPointEd(ptr noundef nonnull align 8 dereferenceable(32) %0, double noundef %1) #0 comdat align 2 {
  %3 = alloca %"class.pxrInternal_v0_24__pxrReserved__::GfVec2d", align 8
  %4 = alloca ptr, align 8
  %5 = alloca double, align 8
  %6 = alloca %"class.pxrInternal_v0_24__pxrReserved__::GfVec2d", align 8
  store ptr %0, ptr %4, align 8
  store double %1, ptr %5, align 8
  %7 = load ptr, ptr %4, align 8
  %8 = getelementptr inbounds nuw %"class.pxrInternal_v0_24__pxrReserved__::GfLine2d", ptr %7, i32 0, i32 0
  %9 = getelementptr inbounds nuw %"class.pxrInternal_v0_24__pxrReserved__::GfLine2d", ptr %7, i32 0, i32 1
  %10 = load double, ptr %5, align 8
  %11 = call { double, double } @_ZNK32pxrInternal_v0_24__pxrReserved__7GfVec2dmlEd(ptr noundef nonnull align 8 dereferenceable(16) %9, double noundef %10)
  %12 = getelementptr inbounds nuw %"class.pxrInternal_v0_24__pxrReserved__::GfVec2d", ptr %6, i32 0, i32 0
  %13 = getelementptr inbounds nuw { double, double }, ptr %12, i32 0, i32 0
  %14 = extractvalue { double, double } %11, 0
  store double %14, ptr %13, align 8
  %15 = getelementptr inbounds nuw { double, double }, ptr %12, i32 0, i32 1
  %16 = extractvalue { double, double } %11, 1
  store double %16, ptr %15, align 8
  %17 = call { double, double } @_ZN32pxrInternal_v0_24__pxrReserved__plERKNS_7GfVec2dES2_(ptr noundef nonnull align 8 dereferenceable(16) %8, ptr noundef nonnull align 8 dereferenceable(16) %6)
  %18 = getelementptr inbounds nuw %"class.pxrInternal_v0_24__pxrReserved__::GfVec2d", ptr %3, i32 0, i32 0
  %19 = getelementptr inbounds nuw { double, double }, ptr %18, i32 0, i32 0
  %20 = extractvalue { double, double } %17, 0
  store double %20, ptr %19, align 8
  %21 = getelementptr inbounds nuw { double, double }, ptr %18, i32 0, i32 1
  %22 = extractvalue { double, double } %17, 1
  store double %22, ptr %21, align 8
  %23 = getelementptr inbounds nuw %"class.pxrInternal_v0_24__pxrReserved__::GfVec2d", ptr %3, i32 0, i32 0
  %24 = load { double, double }, ptr %23, align 8
  ret { double, double } %24
}

; Function Attrs: mustprogress uwtable
define linkonce_odr { double, double } @_ZNK32pxrInternal_v0_24__pxrReserved__11GfLineSeg2d8GetPointEd(ptr noundef nonnull align 8 dereferenceable(40) %0, double noundef %1) #0 comdat align 2 {
  %3 = alloca %"class.pxrInternal_v0_24__pxrReserved__::GfVec2d", align 8
  %4 = alloca ptr, align 8
  %5 = alloca double, align 8
  store ptr %0, ptr %4, align 8
  store double %1, ptr %5, align 8
  %6 = load ptr, ptr %4, align 8
  %7 = getelementptr inbounds nuw %"class.pxrInternal_v0_24__pxrReserved__::GfLineSeg2d", ptr %6, i32 0, i32 0
  %8 = load double, ptr %5, align 8
  %9 = getelementptr inbounds nuw %"class.pxrInternal_v0_24__pxrReserved__::GfLineSeg2d", ptr %6, i32 0, i32 1
  %10 = load double, ptr %9, align 8
  %11 = fmul double %8, %10
  %12 = call { double, double } @_ZNK32pxrInternal_v0_24__pxrReserved__8GfLine2d8GetPointEd(ptr noundef nonnull align 8 dereferenceable(32) %7, double noundef %11)
  %13 = getelementptr inbounds nuw %"class.pxrInternal_v0_24__pxrReserved__::GfVec2d", ptr %3, i32 0, i32 0
  %14 = getelementptr inbounds nuw { double, double }, ptr %13, i32 0, i32 0
  %15 = extractvalue { double, double } %12, 0
  store double %15, ptr %14, align 8
  %16 = getelementptr inbounds nuw { double, double }, ptr %13, i32 0, i32 1
  %17 = extractvalue { double, double } %12, 1
  store double %17, ptr %16, align 8
  %18 = getelementptr inbounds nuw %"class.pxrInternal_v0_24__pxrReserved__::GfVec2d", ptr %3, i32 0, i32 0
  %19 = load { double, double }, ptr %18, align 8
  ret { double, double } %19
}

; Function Attrs: mustprogress nounwind uwtable
define linkonce_odr noundef double @_ZN32pxrInternal_v0_24__pxrReserved__7GfClampEddd(double noundef %0, double noundef %1, double noundef %2) #2 comdat {
  %4 = alloca double, align 8
  %5 = alloca double, align 8
  %6 = alloca double, align 8
  %7 = alloca double, align 8
  store double %0, ptr %5, align 8
  store double %1, ptr %6, align 8
  store double %2, ptr %7, align 8
  %8 = load double, ptr %5, align 8
  %9 = load double, ptr %6, align 8
  %10 = fcmp olt double %8, %9
  br i1 %10, label %11, label %13

11:                                               ; preds = %3
  %12 = load double, ptr %6, align 8
  store double %12, ptr %4, align 8
  br label %21

13:                                               ; preds = %3
  %14 = load double, ptr %5, align 8
  %15 = load double, ptr %7, align 8
  %16 = fcmp ogt double %14, %15
  br i1 %16, label %17, label %19

17:                                               ; preds = %13
  %18 = load double, ptr %7, align 8
  store double %18, ptr %4, align 8
  br label %21

19:                                               ; preds = %13
  %20 = load double, ptr %5, align 8
  store double %20, ptr %4, align 8
  br label %21

21:                                               ; preds = %19, %17, %11
  %22 = load double, ptr %4, align 8
  ret double %22
}

; Function Attrs: mustprogress uwtable
define noundef zeroext i1 @_ZN32pxrInternal_v0_24__pxrReserved__19GfFindClosestPointsERKNS_8GfLine2dERKNS_11GfLineSeg2dEPNS_7GfVec2dES7_PdS8_(ptr noundef nonnull align 8 dereferenceable(32) %0, ptr noundef nonnull align 8 dereferenceable(40) %1, ptr noundef %2, ptr noundef %3, ptr noundef %4, ptr noundef %5) #0 {
  %7 = alloca i1, align 1
  %8 = alloca ptr, align 8
  %9 = alloca ptr, align 8
  %10 = alloca ptr, align 8
  %11 = alloca ptr, align 8
  %12 = alloca ptr, align 8
  %13 = alloca ptr, align 8
  %14 = alloca %"class.pxrInternal_v0_24__pxrReserved__::GfVec2d", align 8
  %15 = alloca %"class.pxrInternal_v0_24__pxrReserved__::GfVec2d", align 8
  %16 = alloca double, align 8
  %17 = alloca double, align 8
  %18 = alloca %"class.pxrInternal_v0_24__pxrReserved__::GfVec2d", align 8
  %19 = alloca %"class.pxrInternal_v0_24__pxrReserved__::GfVec2d", align 8
  store ptr %0, ptr %8, align 8
  store ptr %1, ptr %9, align 8
  store ptr %2, ptr %10, align 8
  store ptr %3, ptr %11, align 8
  store ptr %4, ptr %12, align 8
  store ptr %5, ptr %13, align 8
  %20 = load ptr, ptr %8, align 8
  %21 = load ptr, ptr %9, align 8
  %22 = getelementptr inbounds nuw %"class.pxrInternal_v0_24__pxrReserved__::GfLineSeg2d", ptr %21, i32 0, i32 0
  %23 = call noundef zeroext i1 @_ZN32pxrInternal_v0_24__pxrReserved__19GfFindClosestPointsERKNS_8GfLine2dES2_PNS_7GfVec2dES4_PdS5_(ptr noundef nonnull align 8 dereferenceable(32) %20, ptr noundef nonnull align 8 dereferenceable(32) %22, ptr noundef %14, ptr noundef %15, ptr noundef %16, ptr noundef %17)
  br i1 %23, label %25, label %24

24:                                               ; preds = %6
  store i1 false, ptr %7, align 1
  br label %76

25:                                               ; preds = %6
  %26 = load double, ptr %17, align 8
  %27 = load ptr, ptr %9, align 8
  %28 = getelementptr inbounds nuw %"class.pxrInternal_v0_24__pxrReserved__::GfLineSeg2d", ptr %27, i32 0, i32 1
  %29 = load double, ptr %28, align 8
  %30 = fdiv double %26, %29
  %31 = call noundef double @_ZN32pxrInternal_v0_24__pxrReserved__7GfClampEddd(double noundef %30, double noundef 0.000000e+00, double noundef 1.000000e+00)
  store double %31, ptr %17, align 8
  %32 = load ptr, ptr %9, align 8
  %33 = load double, ptr %17, align 8
  %34 = call { double, double } @_ZNK32pxrInternal_v0_24__pxrReserved__11GfLineSeg2d8GetPointEd(ptr noundef nonnull align 8 dereferenceable(40) %32, double noundef %33)
  %35 = getelementptr inbounds nuw %"class.pxrInternal_v0_24__pxrReserved__::GfVec2d", ptr %18, i32 0, i32 0
  %36 = getelementptr inbounds nuw { double, double }, ptr %35, i32 0, i32 0
  %37 = extractvalue { double, double } %34, 0
  store double %37, ptr %36, align 8
  %38 = getelementptr inbounds nuw { double, double }, ptr %35, i32 0, i32 1
  %39 = extractvalue { double, double } %34, 1
  store double %39, ptr %38, align 8
  call void @llvm.memcpy.p0.p0.i64(ptr align 8 %15, ptr align 8 %18, i64 16, i1 false)
  %40 = load double, ptr %17, align 8
  %41 = fcmp ole double %40, 0.000000e+00
  br i1 %41, label %45, label %42

42:                                               ; preds = %25
  %43 = load double, ptr %17, align 8
  %44 = fcmp oge double %43, 1.000000e+00
  br i1 %44, label %45, label %53

45:                                               ; preds = %42, %25
  %46 = load ptr, ptr %8, align 8
  %47 = call { double, double } @_ZNK32pxrInternal_v0_24__pxrReserved__8GfLine2d16FindClosestPointERKNS_7GfVec2dEPd(ptr noundef nonnull align 8 dereferenceable(32) %46, ptr noundef nonnull align 8 dereferenceable(16) %15, ptr noundef %16)
  %48 = getelementptr inbounds nuw %"class.pxrInternal_v0_24__pxrReserved__::GfVec2d", ptr %19, i32 0, i32 0
  %49 = getelementptr inbounds nuw { double, double }, ptr %48, i32 0, i32 0
  %50 = extractvalue { double, double } %47, 0
  store double %50, ptr %49, align 8
  %51 = getelementptr inbounds nuw { double, double }, ptr %48, i32 0, i32 1
  %52 = extractvalue { double, double } %47, 1
  store double %52, ptr %51, align 8
  call void @llvm.memcpy.p0.p0.i64(ptr align 8 %14, ptr align 8 %19, i64 16, i1 false)
  br label %53

53:                                               ; preds = %45, %42
  %54 = load ptr, ptr %10, align 8
  %55 = icmp ne ptr %54, null
  br i1 %55, label %56, label %58

56:                                               ; preds = %53
  %57 = load ptr, ptr %10, align 8
  call void @llvm.memcpy.p0.p0.i64(ptr align 8 %57, ptr align 8 %14, i64 16, i1 false)
  br label %58

58:                                               ; preds = %56, %53
  %59 = load ptr, ptr %11, align 8
  %60 = icmp ne ptr %59, null
  br i1 %60, label %61, label %63

61:                                               ; preds = %58
  %62 = load ptr, ptr %11, align 8
  call void @llvm.memcpy.p0.p0.i64(ptr align 8 %62, ptr align 8 %15, i64 16, i1 false)
  br label %63

63:                                               ; preds = %61, %58
  %64 = load ptr, ptr %12, align 8
  %65 = icmp ne ptr %64, null
  br i1 %65, label %66, label %69

66:                                               ; preds = %63
  %67 = load double, ptr %16, align 8
  %68 = load ptr, ptr %12, align 8
  store double %67, ptr %68, align 8
  br label %69

69:                                               ; preds = %66, %63
  %70 = load ptr, ptr %13, align 8
  %71 = icmp ne ptr %70, null
  br i1 %71, label %72, label %75

72:                                               ; preds = %69
  %73 = load double, ptr %17, align 8
  %74 = load ptr, ptr %13, align 8
  store double %73, ptr %74, align 8
  br label %75

75:                                               ; preds = %72, %69
  store i1 true, ptr %7, align 1
  br label %76

76:                                               ; preds = %75, %24
  %77 = load i1, ptr %7, align 1
  ret i1 %77
}