; Function Attrs: mustprogress uwtable
define noundef zeroext i1 @_ZN32pxrInternal_v0_24__pxrReserved__19GfFindClosestPointsERKNS_8GfLine2dERKNS_11GfLineSeg2dEPNS_7GfVec2dES7_PdS8_(ptr noundef nonnull align 8 dereferenceable(32) %0, ptr noundef nonnull align 8 dereferenceable(40) %1, ptr noundef writeonly %2, ptr noundef writeonly %3, ptr noundef writeonly %4, ptr noundef writeonly %5) local_unnamed_addr #0 {
  %7 = alloca %"class.pxrInternal_v0_24__pxrReserved__::GfVec2d", align 8
  %8 = alloca %"class.pxrInternal_v0_24__pxrReserved__::GfVec2d", align 8
  %9 = alloca double, align 8
  %10 = alloca double, align 8
  %11 = call noundef zeroext i1 @_ZN32pxrInternal_v0_24__pxrReserved__19GfFindClosestPointsERKNS_8GfLine2dES2_PNS_7GfVec2dES4_PdS5_(ptr noundef nonnull align 8 dereferenceable(32) %0, ptr noundef nonnull align 8 dereferenceable(32) %1, ptr noundef nonnull %7, ptr noundef nonnull %8, ptr noundef nonnull %9, ptr noundef nonnull %10)
  br i1 %11, label %12, label %41

12:                                               ; preds = %6
  %13 = load double, ptr %10, align 8
  %14 = getelementptr inbounds nuw i8, ptr %1, i64 32
  %15 = load double, ptr %14, align 8
  %16 = fdiv double %13, %15
  %17 = fcmp olt double %16, 0.000000e+00
  %18 = fcmp ogt double %16, 1.000000e+00
  %..i = select i1 %18, double 1.000000e+00, double %16
  %.0.i = select i1 %17, double 0.000000e+00, double %..i
  store double %.0.i, ptr %10, align 8
  %19 = fmul double %15, %.0.i
  %20 = getelementptr inbounds nuw i8, ptr %1, i64 16
  %.sroa.0.0.copyload2.i.i.i = load double, ptr %20, align 8
  %.sroa.4.0..sroa_idx.i.i.i = getelementptr inbounds nuw i8, ptr %1, i64 24
  %.sroa.4.0.copyload.i.i.i = load double, ptr %.sroa.4.0..sroa_idx.i.i.i, align 8
  %21 = fmul double %.sroa.0.0.copyload2.i.i.i, %19
  %22 = fmul double %.sroa.4.0.copyload.i.i.i, %19
  %.sroa.0.0.copyload2.i2.i.i = load double, ptr %1, align 8
  %.sroa.4.0..sroa_idx.i3.i.i = getelementptr inbounds nuw i8, ptr %1, i64 8
  %.sroa.4.0.copyload.i4.i.i = load double, ptr %.sroa.4.0..sroa_idx.i3.i.i, align 8
  %23 = fadd double %.sroa.0.0.copyload2.i2.i.i, %21
  %24 = fadd double %.sroa.4.0.copyload.i4.i.i, %22
  store double %23, ptr %8, align 8
  %.sroa.23.0..sroa_idx = getelementptr inbounds nuw i8, ptr %8, i64 8
  store double %24, ptr %.sroa.23.0..sroa_idx, align 8
  %25 = fcmp ole double %.0.i, 0.000000e+00
  %26 = fcmp oge double %.0.i, 1.000000e+00
  %or.cond = or i1 %25, %26
  br i1 %or.cond, label %27, label %31

27:                                               ; preds = %12
  %28 = call { double, double } @_ZNK32pxrInternal_v0_24__pxrReserved__8GfLine2d16FindClosestPointERKNS_7GfVec2dEPd(ptr noundef nonnull align 8 dereferenceable(32) %0, ptr noundef nonnull align 8 dereferenceable(16) %8, ptr noundef nonnull %9)
  %29 = extractvalue { double, double } %28, 0
  %30 = extractvalue { double, double } %28, 1
  store double %29, ptr %7, align 8
  %.sroa.2.0..sroa_idx = getelementptr inbounds nuw i8, ptr %7, i64 8
  store double %30, ptr %.sroa.2.0..sroa_idx, align 8
  br label %31

31:                                               ; preds = %12, %27
  %.not = icmp eq ptr %2, null
  br i1 %.not, label %33, label %32

32:                                               ; preds = %31
  call void @llvm.memcpy.p0.p0.i64(ptr noundef nonnull align 8 dereferenceable(16) %2, ptr noundef nonnull align 8 dereferenceable(16) %7, i64 16, i1 false)
  br label %33

33:                                               ; preds = %32, %31
  %.not21 = icmp eq ptr %3, null
  br i1 %.not21, label %35, label %34

34:                                               ; preds = %33
  call void @llvm.memcpy.p0.p0.i64(ptr noundef nonnull align 8 dereferenceable(16) %3, ptr noundef nonnull align 8 dereferenceable(16) %8, i64 16, i1 false)
  br label %35

35:                                               ; preds = %34, %33
  %.not22 = icmp eq ptr %4, null
  br i1 %.not22, label %38, label %36

36:                                               ; preds = %35
  %37 = load double, ptr %9, align 8
  store double %37, ptr %4, align 8
  br label %38

38:                                               ; preds = %36, %35
  %.not23 = icmp eq ptr %5, null
  br i1 %.not23, label %41, label %39

39:                                               ; preds = %38
  %40 = load double, ptr %10, align 8
  store double %40, ptr %5, align 8
  br label %41

41:                                               ; preds = %38, %39, %6
  ret i1 %11
}